target datalayout = "e-m:e-p270:32:32-p271:32:32-p272:64:64-i64:64-i128:128-f80:128-n8:16:32:64-S128"
target triple = "x86_64-pc-linux-gnu"

%struct.AVFilterPad = type { ptr, i32, i32, %union.anon, ptr, ptr, ptr }
%union.anon = type { ptr }
%struct.AVFilterContext = type { ptr, ptr, ptr, ptr, ptr, i32, ptr, ptr, i32, ptr, ptr, i32, i32, ptr, ptr, ptr, ptr, i32, ptr, i32, i32 }
%struct.HysteresisContext = type { ptr, %struct.FFFrameSync, i32, i32, [4 x i32], [4 x i32], i32, i32, ptr, ptr, i32, ptr }
%struct.FFFrameSync = type { ptr, ptr, i32, %struct.AVRational, i64, ptr, ptr, i32, i32, i8, i8, ptr, i32, i32, i32, i32 }
%struct.AVRational = type { i32, i32 }
%struct.AVFilterLink = type { ptr, ptr, ptr, ptr, i32, i32, i32, i32, %struct.AVRational, i32, i32, i32, %struct.AVChannelLayout, %struct.AVRational, ptr, i32, %struct.AVFilterFormatsConfig, %struct.AVFilterFormatsConfig }
%struct.AVChannelLayout = type { i32, i32, %union.anon.1, ptr }
%union.anon.1 = type { i64 }
%struct.AVFilterFormatsConfig = type { ptr, ptr, ptr, ptr, ptr }
%struct.FilterLink = type { %struct.AVFilterLink, ptr, i64, i64, i32, i32, i64, i64, i64, i64, %struct.AVRational, ptr }
%struct.FFFrameSyncIn = type { i32, i32, %struct.AVRational, ptr, ptr, i64, i64, i8, i8, i32, i32 }

@.str.5 = private unnamed_addr constant [121 x i8] c"First input link %s parameters (size %dx%d) do not match the corresponding second input link %s parameters (size %dx%d)\0A\00", align 1

; Function Attrs: inlinehint nounwind uwtable
define internal ptr @ff_filter_link(ptr noundef %0) #5 {
  %2 = alloca ptr, align 8
  store ptr %0, ptr %2, align 8, !tbaa !24
  %3 = load ptr, ptr %2, align 8, !tbaa !24
  ret ptr %3
}

; Function Attrs: nounwind uwtable
define internal i32 @config_output(ptr noundef %0) #0 {
  %2 = alloca i32, align 4
  %3 = alloca ptr, align 8
  %4 = alloca ptr, align 8
  %5 = alloca ptr, align 8
  %6 = alloca ptr, align 8
  %7 = alloca ptr, align 8
  %8 = alloca ptr, align 8
  %9 = alloca ptr, align 8
  %10 = alloca ptr, align 8
  %11 = alloca i32, align 4
  %12 = alloca i32, align 4
  store ptr %0, ptr %3, align 8, !tbaa !24
  call void @llvm.lifetime.start.p0(i64 8, ptr %4) #9
  %13 = load ptr, ptr %3, align 8, !tbaa !24
  %14 = getelementptr inbounds nuw %struct.AVFilterLink, ptr %13, i32 0, i32 0
  %15 = load ptr, ptr %14, align 8, !tbaa !76
  store ptr %15, ptr %4, align 8, !tbaa !4
  call void @llvm.lifetime.start.p0(i64 8, ptr %5) #9
  %16 = load ptr, ptr %4, align 8, !tbaa !4
  %17 = getelementptr inbounds nuw %struct.AVFilterContext, ptr %16, i32 0, i32 9
  %18 = load ptr, ptr %17, align 8, !tbaa !9
  store ptr %18, ptr %5, align 8, !tbaa !22
  call void @llvm.lifetime.start.p0(i64 8, ptr %6) #9
  %19 = load ptr, ptr %4, align 8, !tbaa !4
  %20 = getelementptr inbounds nuw %struct.AVFilterContext, ptr %19, i32 0, i32 4
  %21 = load ptr, ptr %20, align 8, !tbaa !77
  %22 = getelementptr inbounds ptr, ptr %21, i64 0
  %23 = load ptr, ptr %22, align 8, !tbaa !24
  store ptr %23, ptr %6, align 8, !tbaa !24
  call void @llvm.lifetime.start.p0(i64 8, ptr %7) #9
  %24 = load ptr, ptr %4, align 8, !tbaa !4
  %25 = getelementptr inbounds nuw %struct.AVFilterContext, ptr %24, i32 0, i32 4
  %26 = load ptr, ptr %25, align 8, !tbaa !77
  %27 = getelementptr inbounds ptr, ptr %26, i64 1
  %28 = load ptr, ptr %27, align 8, !tbaa !24
  store ptr %28, ptr %7, align 8, !tbaa !24
  call void @llvm.lifetime.start.p0(i64 8, ptr %8) #9
  %29 = load ptr, ptr %6, align 8, !tbaa !24
  %30 = call ptr @ff_filter_link(ptr noundef %29)
  store ptr %30, ptr %8, align 8, !tbaa !78
  call void @llvm.lifetime.start.p0(i64 8, ptr %9) #9
  %31 = load ptr, ptr %3, align 8, !tbaa !24
  %32 = call ptr @ff_filter_link(ptr noundef %31)
  store ptr %32, ptr %9, align 8, !tbaa !78
  call void @llvm.lifetime.start.p0(i64 8, ptr %10) #9
  call void @llvm.lifetime.start.p0(i64 4, ptr %11) #9
  %33 = load ptr, ptr %6, align 8, !tbaa !24
  %34 = getelementptr inbounds nuw %struct.AVFilterLink, ptr %33, i32 0, i32 6
  %35 = load i32, ptr %34, align 8, !tbaa !48
  %36 = load ptr, ptr %7, align 8, !tbaa !24
  %37 = getelementptr inbounds nuw %struct.AVFilterLink, ptr %36, i32 0, i32 6
  %38 = load i32, ptr %37, align 8, !tbaa !48
  %39 = icmp ne i32 %35, %38
  br i1 %39, label %48, label %40

40:                                               ; preds = %1
  %41 = load ptr, ptr %6, align 8, !tbaa !24
  %42 = getelementptr inbounds nuw %struct.AVFilterLink, ptr %41, i32 0, i32 7
  %43 = load i32, ptr %42, align 4, !tbaa !47
  %44 = load ptr, ptr %7, align 8, !tbaa !24
  %45 = getelementptr inbounds nuw %struct.AVFilterLink, ptr %44, i32 0, i32 7
  %46 = load i32, ptr %45, align 4, !tbaa !47
  %47 = icmp ne i32 %43, %46
  br i1 %47, label %48, label %74

48:                                               ; preds = %40, %1
  %49 = load ptr, ptr %4, align 8, !tbaa !4
  %50 = load ptr, ptr %4, align 8, !tbaa !4
  %51 = getelementptr inbounds nuw %struct.AVFilterContext, ptr %50, i32 0, i32 3
  %52 = load ptr, ptr %51, align 8, !tbaa !80
  %53 = getelementptr inbounds %struct.AVFilterPad, ptr %52, i64 0
  %54 = getelementptr inbounds nuw %struct.AVFilterPad, ptr %53, i32 0, i32 0
  %55 = load ptr, ptr %54, align 8, !tbaa !81
  %56 = load ptr, ptr %6, align 8, !tbaa !24
  %57 = getelementptr inbounds nuw %struct.AVFilterLink, ptr %56, i32 0, i32 6
  %58 = load i32, ptr %57, align 8, !tbaa !48
  %59 = load ptr, ptr %6, align 8, !tbaa !24
  %60 = getelementptr inbounds nuw %struct.AVFilterLink, ptr %59, i32 0, i32 7
  %61 = load i32, ptr %60, align 4, !tbaa !47
  %62 = load ptr, ptr %4, align 8, !tbaa !4
  %63 = getelementptr inbounds nuw %struct.AVFilterContext, ptr %62, i32 0, i32 3
  %64 = load ptr, ptr %63, align 8, !tbaa !80
  %65 = getelementptr inbounds %struct.AVFilterPad, ptr %64, i64 1
  %66 = getelementptr inbounds nuw %struct.AVFilterPad, ptr %65, i32 0, i32 0
  %67 = load ptr, ptr %66, align 8, !tbaa !81
  %68 = load ptr, ptr %7, align 8, !tbaa !24
  %69 = getelementptr inbounds nuw %struct.AVFilterLink, ptr %68, i32 0, i32 6
  %70 = load i32, ptr %69, align 8, !tbaa !48
  %71 = load ptr, ptr %7, align 8, !tbaa !24
  %72 = getelementptr inbounds nuw %struct.AVFilterLink, ptr %71, i32 0, i32 7
  %73 = load i32, ptr %72, align 4, !tbaa !47
  call void (ptr, i32, ptr, ...) @av_log(ptr noundef %49, i32 noundef 16, ptr noundef @.str.5, ptr noundef %55, i32 noundef %58, i32 noundef %61, ptr noundef %67, i32 noundef %70, i32 noundef %73)
  store i32 -22, ptr %2, align 4
  store i32 1, ptr %12, align 4
  br label %149

74:                                               ; preds = %40
  %75 = load ptr, ptr %6, align 8, !tbaa !24
  %76 = getelementptr inbounds nuw %struct.AVFilterLink, ptr %75, i32 0, i32 6
  %77 = load i32, ptr %76, align 8, !tbaa !48
  %78 = load ptr, ptr %3, align 8, !tbaa !24
  %79 = getelementptr inbounds nuw %struct.AVFilterLink, ptr %78, i32 0, i32 6
  store i32 %77, ptr %79, align 8, !tbaa !48
  %80 = load ptr, ptr %6, align 8, !tbaa !24
  %81 = getelementptr inbounds nuw %struct.AVFilterLink, ptr %80, i32 0, i32 7
  %82 = load i32, ptr %81, align 4, !tbaa !47
  %83 = load ptr, ptr %3, align 8, !tbaa !24
  %84 = getelementptr inbounds nuw %struct.AVFilterLink, ptr %83, i32 0, i32 7
  store i32 %82, ptr %84, align 4, !tbaa !47
  %85 = load ptr, ptr %3, align 8, !tbaa !24
  %86 = getelementptr inbounds nuw %struct.AVFilterLink, ptr %85, i32 0, i32 8
  %87 = load ptr, ptr %6, align 8, !tbaa !24
  %88 = getelementptr inbounds nuw %struct.AVFilterLink, ptr %87, i32 0, i32 8
  call void @llvm.memcpy.p0.p0.i64(ptr align 8 %86, ptr align 8 %88, i64 8, i1 false), !tbaa.struct !83
  %89 = load ptr, ptr %9, align 8, !tbaa !78
  %90 = getelementptr inbounds nuw %struct.FilterLink, ptr %89, i32 0, i32 10
  %91 = load ptr, ptr %8, align 8, !tbaa !78
  %92 = getelementptr inbounds nuw %struct.FilterLink, ptr %91, i32 0, i32 10
  call void @llvm.memcpy.p0.p0.i64(ptr align 8 %90, ptr align 8 %92, i64 8, i1 false), !tbaa.struct !83
  %93 = load ptr, ptr %5, align 8, !tbaa !22
  %94 = getelementptr inbounds nuw %struct.HysteresisContext, ptr %93, i32 0, i32 1
  %95 = load ptr, ptr %4, align 8, !tbaa !4
  %96 = call i32 @ff_framesync_init(ptr noundef %94, ptr noundef %95, i32 noundef 2)
  store i32 %96, ptr %11, align 4, !tbaa !45
  %97 = icmp slt i32 %96, 0
  br i1 %97, label %98, label %100

98:                                               ; preds = %74
  %99 = load i32, ptr %11, align 4, !tbaa !45
  store i32 %99, ptr %2, align 4
  store i32 1, ptr %12, align 4
  br label %149

100:                                              ; preds = %74
  %101 = load ptr, ptr %5, align 8, !tbaa !22
  %102 = getelementptr inbounds nuw %struct.HysteresisContext, ptr %101, i32 0, i32 1
  %103 = getelementptr inbounds nuw %struct.FFFrameSync, ptr %102, i32 0, i32 11
  %104 = load ptr, ptr %103, align 8, !tbaa !84
  store ptr %104, ptr %10, align 8, !tbaa !85
  %105 = load ptr, ptr %10, align 8, !tbaa !85
  %106 = getelementptr inbounds %struct.FFFrameSyncIn, ptr %105, i64 0
  %107 = getelementptr inbounds nuw %struct.FFFrameSyncIn, ptr %106, i32 0, i32 2
  %108 = load ptr, ptr %6, align 8, !tbaa !24
  %109 = getelementptr inbounds nuw %struct.AVFilterLink, ptr %108, i32 0, i32 13
  call void @llvm.memcpy.p0.p0.i64(ptr align 8 %107, ptr align 8 %109, i64 8, i1 false), !tbaa.struct !83
  %110 = load ptr, ptr %10, align 8, !tbaa !85
  %111 = getelementptr inbounds %struct.FFFrameSyncIn, ptr %110, i64 1
  %112 = getelementptr inbounds nuw %struct.FFFrameSyncIn, ptr %111, i32 0, i32 2
  %113 = load ptr, ptr %7, align 8, !tbaa !24
  %114 = getelementptr inbounds nuw %struct.AVFilterLink, ptr %113, i32 0, i32 13
  call void @llvm.memcpy.p0.p0.i64(ptr align 8 %112, ptr align 8 %114, i64 8, i1 false), !tbaa.struct !83
  %115 = load ptr, ptr %10, align 8, !tbaa !85
  %116 = getelementptr inbounds %struct.FFFrameSyncIn, ptr %115, i64 0
  %117 = getelementptr inbounds nuw %struct.FFFrameSyncIn, ptr %116, i32 0, i32 9
  store i32 1, ptr %117, align 4, !tbaa !86
  %118 = load ptr, ptr %10, align 8, !tbaa !85
  %119 = getelementptr inbounds %struct.FFFrameSyncIn, ptr %118, i64 0
  %120 = getelementptr inbounds nuw %struct.FFFrameSyncIn, ptr %119, i32 0, i32 0
  store i32 0, ptr %120, align 8, !tbaa !89
  %121 = load ptr, ptr %10, align 8, !tbaa !85
  %122 = getelementptr inbounds %struct.FFFrameSyncIn, ptr %121, i64 0
  %123 = getelementptr inbounds nuw %struct.FFFrameSyncIn, ptr %122, i32 0, i32 1
  store i32 2, ptr %123, align 4, !tbaa !90
  %124 = load ptr, ptr %10, align 8, !tbaa !85
  %125 = getelementptr inbounds %struct.FFFrameSyncIn, ptr %124, i64 1
  %126 = getelementptr inbounds nuw %struct.FFFrameSyncIn, ptr %125, i32 0, i32 9
  store i32 1, ptr %126, align 4, !tbaa !86
  %127 = load ptr, ptr %10, align 8, !tbaa !85
  %128 = getelementptr inbounds %struct.FFFrameSyncIn, ptr %127, i64 1
  %129 = getelementptr inbounds nuw %struct.FFFrameSyncIn, ptr %128, i32 0, i32 0
  store i32 0, ptr %129, align 8, !tbaa !89
  %130 = load ptr, ptr %10, align 8, !tbaa !85
  %131 = getelementptr inbounds %struct.FFFrameSyncIn, ptr %130, i64 1
  %132 = getelementptr inbounds nuw %struct.FFFrameSyncIn, ptr %131, i32 0, i32 1
  store i32 2, ptr %132, align 4, !tbaa !90
  %133 = load ptr, ptr %5, align 8, !tbaa !22
  %134 = load ptr, ptr %5, align 8, !tbaa !22
  %135 = getelementptr inbounds nuw %struct.HysteresisContext, ptr %134, i32 0, i32 1
  %136 = getelementptr inbounds nuw %struct.FFFrameSync, ptr %135, i32 0, i32 6
  store ptr %133, ptr %136, align 8, !tbaa !91
  %137 = load ptr, ptr %5, align 8, !tbaa !22
  %138 = getelementptr inbounds nuw %struct.HysteresisContext, ptr %137, i32 0, i32 1
  %139 = getelementptr inbounds nuw %struct.FFFrameSync, ptr %138, i32 0, i32 5
  store ptr @process_frame, ptr %139, align 8, !tbaa !92
  %140 = load ptr, ptr %5, align 8, !tbaa !22
  %141 = getelementptr inbounds nuw %struct.HysteresisContext, ptr %140, i32 0, i32 1
  %142 = call i32 @ff_framesync_configure(ptr noundef %141)
  store i32 %142, ptr %11, align 4, !tbaa !45
  %143 = load ptr, ptr %3, align 8, !tbaa !24
  %144 = getelementptr inbounds nuw %struct.AVFilterLink, ptr %143, i32 0, i32 13
  %145 = load ptr, ptr %5, align 8, !tbaa !22
  %146 = getelementptr inbounds nuw %struct.HysteresisContext, ptr %145, i32 0, i32 1
  %147 = getelementptr inbounds nuw %struct.FFFrameSync, ptr %146, i32 0, i32 3
  call void @llvm.memcpy.p0.p0.i64(ptr align 8 %144, ptr align 4 %147, i64 8, i1 false), !tbaa.struct !83
  %148 = load i32, ptr %11, align 4, !tbaa !45
  store i32 %148, ptr %2, align 4
  store i32 1, ptr %12, align 4
  br label %149

149:                                              ; preds = %100, %98, %48
  call void @llvm.lifetime.end.p0(i64 4, ptr %11) #9
  call void @llvm.lifetime.end.p0(i64 8, ptr %10) #9
  call void @llvm.lifetime.end.p0(i64 8, ptr %9) #9
  call void @llvm.lifetime.end.p0(i64 8, ptr %8) #9
  call void @llvm.lifetime.end.p0(i64 8, ptr %7) #9
  call void @llvm.lifetime.end.p0(i64 8, ptr %6) #9
  call void @llvm.lifetime.end.p0(i64 8, ptr %5) #9
  call void @llvm.lifetime.end.p0(i64 8, ptr %4) #9
  %150 = load i32, ptr %2, align 4
  ret i32 %150
}