; Function Attrs: nounwind uwtable
define internal i32 @config_output(ptr noundef captures(none) %0) #0 {
  %2 = load ptr, ptr %0, align 8, !tbaa !64
  %3 = getelementptr inbounds nuw i8, ptr %2, i64 72
  %4 = load ptr, ptr %3, align 8, !tbaa !4
  %5 = getelementptr inbounds nuw i8, ptr %2, i64 32
  %6 = load ptr, ptr %5, align 8, !tbaa !65
  %7 = load ptr, ptr %6, align 8, !tbaa !66
  %8 = getelementptr inbounds nuw i8, ptr %6, i64 8
  %9 = load ptr, ptr %8, align 8, !tbaa !66
  %10 = getelementptr inbounds nuw i8, ptr %7, i64 40
  %11 = load i32, ptr %10, align 8, !tbaa !41
  %12 = getelementptr inbounds nuw i8, ptr %9, i64 40
  %13 = load i32, ptr %12, align 8, !tbaa !41
  %.not = icmp eq i32 %11, %13
  %14 = getelementptr inbounds nuw i8, ptr %7, i64 44
  %15 = load i32, ptr %14, align 4, !tbaa !38
  %16 = getelementptr inbounds nuw i8, ptr %9, i64 44
  %17 = load i32, ptr %16, align 4, !tbaa !38
  %.not48 = icmp eq i32 %15, %17
  %or.cond = select i1 %.not, i1 %.not48, i1 false
  br i1 %or.cond, label %23, label %._crit_edge

._crit_edge:                                      ; preds = %1
  %18 = getelementptr inbounds nuw i8, ptr %2, i64 24
  %19 = load ptr, ptr %18, align 8, !tbaa !68
  %20 = load ptr, ptr %19, align 8, !tbaa !69
  %21 = getelementptr inbounds nuw i8, ptr %19, i64 48
  %22 = load ptr, ptr %21, align 8, !tbaa !69
  tail call void (ptr, i32, ptr, ...) @av_log(ptr noundef nonnull %2, i32 noundef 16, ptr noundef nonnull @.str.5, ptr noundef %20, i32 noundef %11, i32 noundef %15, ptr noundef %22, i32 noundef %13, i32 noundef %17) #9
  br label %55

23:                                               ; preds = %1
  %24 = getelementptr inbounds nuw i8, ptr %0, i64 40
  store i32 %11, ptr %24, align 8, !tbaa !41
  %25 = getelementptr inbounds nuw i8, ptr %0, i64 44
  store i32 %15, ptr %25, align 4, !tbaa !38
  %26 = getelementptr inbounds nuw i8, ptr %0, i64 48
  %27 = getelementptr inbounds nuw i8, ptr %7, i64 48
  %28 = load i64, ptr %27, align 8
  store i64 %28, ptr %26, align 8
  %29 = getelementptr inbounds nuw i8, ptr %0, i64 264
  %30 = getelementptr inbounds nuw i8, ptr %7, i64 264
  %31 = load i64, ptr %30, align 8
  store i64 %31, ptr %29, align 8
  %32 = getelementptr inbounds nuw i8, ptr %4, i64 8
  %33 = tail call i32 @ff_framesync_init(ptr noundef nonnull %32, ptr noundef nonnull %2, i32 noundef 2) #9
  %34 = icmp slt i32 %33, 0
  br i1 %34, label %55, label %35

35:                                               ; preds = %23
  %36 = getelementptr inbounds nuw i8, ptr %4, i64 80
  %37 = load ptr, ptr %36, align 8, !tbaa !71
  %38 = getelementptr inbounds nuw i8, ptr %37, i64 8
  %39 = getelementptr inbounds nuw i8, ptr %7, i64 96
  %40 = load i64, ptr %39, align 8
  store i64 %40, ptr %38, align 8
  %41 = getelementptr inbounds nuw i8, ptr %37, i64 64
  %42 = getelementptr inbounds nuw i8, ptr %37, i64 72
  %43 = getelementptr inbounds nuw i8, ptr %9, i64 96
  %44 = load i64, ptr %43, align 8
  store i64 %44, ptr %42, align 8
  %45 = getelementptr inbounds nuw i8, ptr %37, i64 52
  store i32 1, ptr %45, align 4, !tbaa !72
  store i32 0, ptr %37, align 8, !tbaa !75
  %46 = getelementptr inbounds nuw i8, ptr %37, i64 4
  store i32 2, ptr %46, align 4, !tbaa !76
  %47 = getelementptr inbounds nuw i8, ptr %37, i64 116
  store i32 1, ptr %47, align 4, !tbaa !72
  store i32 0, ptr %41, align 8, !tbaa !75
  %48 = getelementptr inbounds nuw i8, ptr %37, i64 68
  store i32 2, ptr %48, align 4, !tbaa !76
  %49 = getelementptr inbounds nuw i8, ptr %4, i64 56
  store ptr %4, ptr %49, align 8, !tbaa !77
  %50 = getelementptr inbounds nuw i8, ptr %4, i64 48
  store ptr @process_frame, ptr %50, align 8, !tbaa !78
  %51 = tail call i32 @ff_framesync_configure(ptr noundef nonnull %32) #9
  %52 = getelementptr inbounds nuw i8, ptr %0, i64 96
  %53 = getelementptr inbounds nuw i8, ptr %4, i64 28
  %54 = load i64, ptr %53, align 4
  store i64 %54, ptr %52, align 8
  br label %55

55:                                               ; preds = %23, %35, %._crit_edge
  %.0 = phi i32 [ -22, %._crit_edge ], [ %51, %35 ], [ %33, %23 ]
  ret i32 %.0
}